target datalayout = "e-m:e-p270:32:32-p271:32:32-p272:64:64-i64:64-i128:128-f80:128-n8:16:32:64-S128"
target triple = "x86_64-unknown-linux-gnu"

%struct.HIDState = type { %union.anon, i32, i32, i32, i32, i8, i8, ptr, ptr, ptr }
%union.anon = type { %struct.HIDMouseState }
%struct.HIDMouseState = type { [16 x %struct.HIDPointerEvent], i32 }
%struct.HIDPointerEvent = type { i32, i32, i32, i32 }

; Function Attrs: nounwind sspstrong uwtable
define internal i32 @hid_post_load(ptr noundef %opaque, i32 noundef %version_id) #0 {
entry:
  %opaque.addr = alloca ptr, align 8
  %version_id.addr = alloca i32, align 4
  %s = alloca ptr, align 8
  %evt = alloca %struct.HIDPointerEvent, align 4
  store ptr %opaque, ptr %opaque.addr, align 8
  store i32 %version_id, ptr %version_id.addr, align 4
  %0 = load ptr, ptr %opaque.addr, align 8
  store ptr %0, ptr %s, align 8
  %1 = load ptr, ptr %s, align 8
  call void @hid_set_next_idle(ptr noundef %1)
  %2 = load ptr, ptr %s, align 8
  %n = getelementptr inbounds %struct.HIDState, ptr %2, i32 0, i32 2
  %3 = load i32, ptr %n, align 8
  %cmp = icmp eq i32 %3, 16
  br i1 %cmp, label %land.lhs.true, label %if.end12

land.lhs.true:                                    ; preds = %entry
  %4 = load ptr, ptr %s, align 8
  %kind = getelementptr inbounds %struct.HIDState, ptr %4, i32 0, i32 3
  %5 = load i32, ptr %kind, align 4
  %cmp1 = icmp eq i32 %5, 2
  br i1 %cmp1, label %if.then, label %lor.lhs.false

lor.lhs.false:                                    ; preds = %land.lhs.true
  %6 = load ptr, ptr %s, align 8
  %kind2 = getelementptr inbounds %struct.HIDState, ptr %6, i32 0, i32 3
  %7 = load i32, ptr %kind2, align 4
  %cmp3 = icmp eq i32 %7, 1
  br i1 %cmp3, label %if.then, label %if.end12

if.then:                                          ; preds = %lor.lhs.false, %land.lhs.true
  %8 = load ptr, ptr %s, align 8
  %9 = getelementptr inbounds %struct.HIDState, ptr %8, i32 0, i32 0
  %queue = getelementptr inbounds %struct.HIDMouseState, ptr %9, i32 0, i32 0
  %10 = load ptr, ptr %s, align 8
  %head = getelementptr inbounds %struct.HIDState, ptr %10, i32 0, i32 1
  %11 = load i32, ptr %head, align 4
  %12 = load ptr, ptr %s, align 8
  %n4 = getelementptr inbounds %struct.HIDState, ptr %12, i32 0, i32 2
  %13 = load i32, ptr %n4, align 8
  %add = add i32 %11, %13
  %and = and i32 %add, 15
  %idxprom = zext i32 %and to i64
  %arrayidx = getelementptr [16 x %struct.HIDPointerEvent], ptr %queue, i64 0, i64 %idxprom
  call void @llvm.memcpy.p0.p0.i64(ptr align 4 %evt, ptr align 8 %arrayidx, i64 16, i1 false)
  %14 = load ptr, ptr %s, align 8
  %kind5 = getelementptr inbounds %struct.HIDState, ptr %14, i32 0, i32 3
  %15 = load i32, ptr %kind5, align 4
  %cmp6 = icmp eq i32 %15, 1
  br i1 %cmp6, label %if.then7, label %if.end

if.then7:                                         ; preds = %if.then
  %xdx = getelementptr inbounds %struct.HIDPointerEvent, ptr %evt, i32 0, i32 0
  store i32 0, ptr %xdx, align 4
  %ydy = getelementptr inbounds %struct.HIDPointerEvent, ptr %evt, i32 0, i32 1
  store i32 0, ptr %ydy, align 4
  br label %if.end

if.end:                                           ; preds = %if.then7, %if.then
  %16 = load ptr, ptr %s, align 8
  %17 = getelementptr inbounds %struct.HIDState, ptr %16, i32 0, i32 0
  %queue8 = getelementptr inbounds %struct.HIDMouseState, ptr %17, i32 0, i32 0
  %arrayidx9 = getelementptr [16 x %struct.HIDPointerEvent], ptr %queue8, i64 0, i64 0
  call void @llvm.memcpy.p0.p0.i64(ptr align 8 %arrayidx9, ptr align 4 %evt, i64 16, i1 false)
  %18 = load ptr, ptr %s, align 8
  %head10 = getelementptr inbounds %struct.HIDState, ptr %18, i32 0, i32 1
  store i32 0, ptr %head10, align 4
  %19 = load ptr, ptr %s, align 8
  %n11 = getelementptr inbounds %struct.HIDState, ptr %19, i32 0, i32 2
  store i32 1, ptr %n11, align 8
  br label %if.end12

if.end12:                                         ; preds = %if.end, %lor.lhs.false, %entry
  ret i32 0
}