; Function Attrs: nounwind sspstrong uwtable
define internal noundef i32 @hid_post_load(ptr noundef %opaque, i32 %version_id) #1 {
entry:
  tail call void @hid_set_next_idle(ptr noundef %opaque)
  %n = getelementptr inbounds nuw i8, ptr %opaque, i64 264
  %0 = load i32, ptr %n, align 8
  %cmp = icmp eq i32 %0, 16
  br i1 %cmp, label %land.lhs.true, label %if.end12

land.lhs.true:                                    ; preds = %entry
  %kind = getelementptr inbounds nuw i8, ptr %opaque, i64 268
  %1 = load i32, ptr %kind, align 4
  %.off = add i32 %1, -1
  %switch = icmp ult i32 %.off, 2
  br i1 %switch, label %if.then, label %if.end12

if.then:                                          ; preds = %land.lhs.true
  %head = getelementptr inbounds nuw i8, ptr %opaque, i64 260
  %2 = load i32, ptr %head, align 4
  %and = and i32 %2, 15
  %idxprom = zext nneg i32 %and to i64
  %arrayidx = getelementptr [16 x %struct.HIDPointerEvent], ptr %opaque, i64 0, i64 %idxprom
  %evt.sroa.0.0.copyload = load i32, ptr %arrayidx, align 8
  %evt.sroa.3.0.arrayidx.sroa_idx = getelementptr inbounds nuw i8, ptr %arrayidx, i64 4
  %evt.sroa.3.0.copyload = load i32, ptr %evt.sroa.3.0.arrayidx.sroa_idx, align 4
  %evt.sroa.4.0.arrayidx.sroa_idx = getelementptr inbounds nuw i8, ptr %arrayidx, i64 8
  %3 = load i64, ptr %evt.sroa.4.0.arrayidx.sroa_idx, align 8
  %cmp6 = icmp eq i32 %1, 1
  %spec.select = select i1 %cmp6, i32 0, i32 %evt.sroa.3.0.copyload
  %spec.select13 = select i1 %cmp6, i32 0, i32 %evt.sroa.0.0.copyload
  store i32 %spec.select13, ptr %opaque, align 8
  %evt.sroa.3.0.arrayidx9.sroa_idx = getelementptr inbounds nuw i8, ptr %opaque, i64 4
  store i32 %spec.select, ptr %evt.sroa.3.0.arrayidx9.sroa_idx, align 4
  %evt.sroa.4.0.arrayidx9.sroa_idx = getelementptr inbounds nuw i8, ptr %opaque, i64 8
  store i64 %3, ptr %evt.sroa.4.0.arrayidx9.sroa_idx, align 8
  store i32 0, ptr %head, align 4
  store i32 1, ptr %n, align 8
  br label %if.end12

if.end12:                                         ; preds = %land.lhs.true, %if.then, %entry
  ret i32 0
}